target datalayout = "e-m:e-p270:32:32-p271:32:32-p272:64:64-i64:64-i128:128-f80:128-n8:16:32:64-S128"
target triple = "x86_64-pc-linux-gnu"

%struct.stepd_step_rec_t = type { ptr, ptr, i32, %union.pthread_cond_t, %union.pthread_mutex_t, %struct.slurm_step_id_msg, i32, i32, i32, i32, i32, i32, ptr, ptr, i32, i32, ptr, i32, i32, i32, i32, i32, ptr, ptr, ptr, ptr, i32, i32, i64, i64, i16, i32, ptr, ptr, ptr, i32, ptr, i32, ptr, i32, ptr, i16, i32, i32, i32, ptr, i32, ptr, ptr, ptr, ptr, i32, i32, ptr, ptr, i8, i8, i8, i64, i32, ptr, ptr, ptr, ptr, ptr, ptr, ptr, ptr, ptr, ptr, i32, i32, ptr, i8, %union.pthread_cond_t, %union.pthread_mutex_t, i64, ptr, i32, i32, i32, ptr, i64, ptr, ptr, i8, ptr, i16, ptr, ptr, ptr, ptr, ptr, ptr, i64, ptr, i64, ptr, i16, i8, i16, i32, ptr, i16, ptr, ptr, i16, ptr, ptr, ptr, i8 }
%struct.slurm_step_id_msg = type { i64, i32, i32, i32 }
%union.pthread_cond_t = type { %struct.__pthread_cond_s }
%struct.__pthread_cond_s = type { %union.__atomic_wide_counter, %union.__atomic_wide_counter, [2 x i32], [2 x i32], i32, i32, [2 x i32] }
%union.__atomic_wide_counter = type { i64 }
%union.pthread_mutex_t = type { %struct.__pthread_mutex_s }
%struct.__pthread_mutex_s = type { i32, i32, i32, i32, i32, i16, i16, %struct.__pthread_internal_list }
%struct.__pthread_internal_list = type { ptr, ptr }

@.str = private unnamed_addr constant [29 x i8] c"%s: pthread_mutex_lock(): %m\00", align 1
@.str.7 = private unnamed_addr constant [31 x i8] c"%s: pthread_mutex_unlock(): %m\00", align 1
@.str.12 = private unnamed_addr constant [5 x i8] c"io.c\00", align 1
@.str.131 = private unnamed_addr constant [27 x i8] c"IO handler started pid=%lu\00", align 1
@.str.132 = private unnamed_addr constant [25 x i8] c"IO handler exited, rc=%d\00", align 1
@__func__._io_thr = private unnamed_addr constant [8 x i8] c"_io_thr\00", align 1
@.str.133 = private unnamed_addr constant [39 x i8] c"%s:%d %s: pthread_cond_broadcast(): %m\00", align 1

; Function Attrs: nounwind uwtable
define internal ptr @_io_thr(ptr noundef %0) #0 {
  %2 = alloca ptr, align 8
  %3 = alloca ptr, align 8
  %4 = alloca i32, align 4
  %5 = alloca i32, align 4
  %6 = alloca i32, align 4
  %7 = alloca i32, align 4
  store ptr %0, ptr %2, align 8
  call void @llvm.lifetime.start.p0(i64 8, ptr %3) #10
  %8 = load ptr, ptr %2, align 8
  store ptr %8, ptr %3, align 8
  call void @llvm.lifetime.start.p0(i64 4, ptr %4) #10
  br label %9

9:                                                ; preds = %1
  br label %10

10:                                               ; preds = %9
  %11 = call i32 @get_log_level()
  %12 = icmp sge i32 %11, 5
  br i1 %12, label %13, label %16

13:                                               ; preds = %10
  %14 = call i32 @getpid() #10
  %15 = sext i32 %14 to i64
  call void (i32, ptr, ...) @log_var(i32 noundef 5, ptr noundef @.str.131, i64 noundef %15)
  br label %16

16:                                               ; preds = %13, %10
  br label %17

17:                                               ; preds = %16
  br label %18

18:                                               ; preds = %17
  br label %19

19:                                               ; preds = %18
  br label %20

20:                                               ; preds = %19
  %21 = load ptr, ptr %3, align 8
  %22 = getelementptr inbounds nuw %struct.stepd_step_rec_t, ptr %21, i32 0, i32 63
  %23 = load ptr, ptr %22, align 8
  %24 = call i32 @eio_handle_mainloop(ptr noundef %23)
  store i32 %24, ptr %4, align 4
  br label %25

25:                                               ; preds = %20
  br label %26

26:                                               ; preds = %25
  %27 = call i32 @get_log_level()
  %28 = icmp sge i32 %27, 5
  br i1 %28, label %29, label %31

29:                                               ; preds = %26
  %30 = load i32, ptr %4, align 4
  call void (i32, ptr, ...) @log_var(i32 noundef 5, ptr noundef @.str.132, i32 noundef %30)
  br label %31

31:                                               ; preds = %29, %26
  br label %32

32:                                               ; preds = %31
  br label %33

33:                                               ; preds = %32
  br label %34

34:                                               ; preds = %33
  br label %35

35:                                               ; preds = %34
  br label %36

36:                                               ; preds = %35
  call void @llvm.lifetime.start.p0(i64 4, ptr %5) #10
  %37 = load ptr, ptr %3, align 8
  %38 = getelementptr inbounds nuw %struct.stepd_step_rec_t, ptr %37, i32 0, i32 75
  %39 = call i32 @pthread_mutex_lock(ptr noundef %38) #10
  store i32 %39, ptr %5, align 4
  %40 = load i32, ptr %5, align 4
  %41 = icmp ne i32 %40, 0
  br i1 %41, label %42, label %45

42:                                               ; preds = %36
  %43 = load i32, ptr %5, align 4
  %44 = call ptr @__errno_location() #11
  store i32 %43, ptr %44, align 4
  call void (ptr, ...) @fatal_abort(ptr noundef @.str, ptr noundef @__func__._io_thr) #12
  unreachable

45:                                               ; preds = %36
  call void @llvm.lifetime.end.p0(i64 4, ptr %5) #10
  br label %46

46:                                               ; preds = %45
  br label %47

47:                                               ; preds = %46
  %48 = load ptr, ptr %3, align 8
  %49 = getelementptr inbounds nuw %struct.stepd_step_rec_t, ptr %48, i32 0, i32 73
  store i8 0, ptr %49, align 8
  br label %50

50:                                               ; preds = %47
  call void @llvm.lifetime.start.p0(i64 4, ptr %6) #10
  %51 = load ptr, ptr %3, align 8
  %52 = getelementptr inbounds nuw %struct.stepd_step_rec_t, ptr %51, i32 0, i32 74
  %53 = call i32 @pthread_cond_broadcast(ptr noundef %52) #10
  store i32 %53, ptr %6, align 4
  %54 = load i32, ptr %6, align 4
  %55 = icmp ne i32 %54, 0
  br i1 %55, label %56, label %60

56:                                               ; preds = %50
  %57 = load i32, ptr %6, align 4
  %58 = call ptr @__errno_location() #11
  store i32 %57, ptr %58, align 4
  %59 = call i32 (ptr, ...) @error(ptr noundef @.str.133, ptr noundef @.str.12, i32 noundef 1572, ptr noundef @__func__._io_thr)
  br label %60

60:                                               ; preds = %56, %50
  call void @llvm.lifetime.end.p0(i64 4, ptr %6) #10
  br label %61

61:                                               ; preds = %60
  br label %62

62:                                               ; preds = %61
  br label %63

63:                                               ; preds = %62
  call void @llvm.lifetime.start.p0(i64 4, ptr %7) #10
  %64 = load ptr, ptr %3, align 8
  %65 = getelementptr inbounds nuw %struct.stepd_step_rec_t, ptr %64, i32 0, i32 75
  %66 = call i32 @pthread_mutex_unlock(ptr noundef %65) #10
  store i32 %66, ptr %7, align 4
  %67 = load i32, ptr %7, align 4
  %68 = icmp ne i32 %67, 0
  br i1 %68, label %69, label %72

69:                                               ; preds = %63
  %70 = load i32, ptr %7, align 4
  %71 = call ptr @__errno_location() #11
  store i32 %70, ptr %71, align 4
  call void (ptr, ...) @fatal_abort(ptr noundef @.str.7, ptr noundef @__func__._io_thr) #12
  unreachable

72:                                               ; preds = %63
  call void @llvm.lifetime.end.p0(i64 4, ptr %7) #10
  br label %73

73:                                               ; preds = %72
  br label %74

74:                                               ; preds = %73
  call void @llvm.lifetime.end.p0(i64 4, ptr %4) #10
  call void @llvm.lifetime.end.p0(i64 8, ptr %3) #10
  ret ptr inttoptr (i64 1 to ptr)
}