; Function Attrs: nounwind uwtable
define internal noundef nonnull ptr @_io_thr(ptr noundef %0) #0 {
  %2 = tail call i32 @get_log_level() #11
  %3 = icmp sgt i32 %2, 4
  br i1 %3, label %4, label %7

4:                                                ; preds = %1
  %5 = tail call i32 @getpid() #11
  %6 = sext i32 %5 to i64
  tail call void (i32, ptr, ...) @log_var(i32 noundef 5, ptr noundef nonnull @.str.131, i64 noundef %6) #11
  br label %7

7:                                                ; preds = %4, %1
  %8 = getelementptr inbounds nuw i8, ptr %0, i64 488
  %9 = load ptr, ptr %8, align 8
  %10 = tail call i32 @eio_handle_mainloop(ptr noundef %9) #11
  %11 = tail call i32 @get_log_level() #11
  %12 = icmp sgt i32 %11, 4
  br i1 %12, label %13, label %14

13:                                               ; preds = %7
  tail call void (i32, ptr, ...) @log_var(i32 noundef 5, ptr noundef nonnull @.str.132, i32 noundef %10) #11
  br label %14

14:                                               ; preds = %7, %13
  %15 = getelementptr inbounds nuw i8, ptr %0, i64 616
  %16 = tail call i32 @pthread_mutex_lock(ptr noundef nonnull %15) #11
  %.not = icmp eq i32 %16, 0
  br i1 %.not, label %19, label %17

17:                                               ; preds = %14
  %18 = tail call ptr @__errno_location() #13
  store i32 %16, ptr %18, align 4
  tail call void (ptr, ...) @fatal_abort(ptr noundef nonnull @.str, ptr noundef nonnull @__func__._io_thr) #12
  unreachable

19:                                               ; preds = %14
  %20 = getelementptr inbounds nuw i8, ptr %0, i64 560
  store i8 0, ptr %20, align 8
  %21 = getelementptr inbounds nuw i8, ptr %0, i64 568
  %22 = tail call i32 @pthread_cond_broadcast(ptr noundef nonnull %21) #11
  %.not14 = icmp eq i32 %22, 0
  br i1 %.not14, label %26, label %23

23:                                               ; preds = %19
  %24 = tail call ptr @__errno_location() #13
  store i32 %22, ptr %24, align 4
  %25 = tail call i32 (ptr, ...) @error(ptr noundef nonnull @.str.133, ptr noundef nonnull @.str.12, i32 noundef 1572, ptr noundef nonnull @__func__._io_thr) #11
  br label %26

26:                                               ; preds = %23, %19
  %27 = tail call i32 @pthread_mutex_unlock(ptr noundef nonnull %15) #11
  %.not15 = icmp eq i32 %27, 0
  br i1 %.not15, label %30, label %28

28:                                               ; preds = %26
  %29 = tail call ptr @__errno_location() #13
  store i32 %27, ptr %29, align 4
  tail call void (ptr, ...) @fatal_abort(ptr noundef nonnull @.str.7, ptr noundef nonnull @__func__._io_thr) #12
  unreachable

30:                                               ; preds = %26
  ret ptr inttoptr (i64 1 to ptr)
}